target datalayout = "e-m:e-p270:32:32-p271:32:32-p272:64:64-i64:64-i128:128-f80:128-n8:16:32:64-S128"
target triple = "x86_64-pc-linux-gnu"

%struct.slurm_conf_t = type { i64, ptr, i16, ptr, ptr, ptr, ptr, ptr, i16, ptr, ptr, ptr, ptr, ptr, ptr, ptr, i16, ptr, ptr, ptr, ptr, i16, ptr, ptr, ptr, i64, ptr, ptr, ptr, ptr, i16, ptr, ptr, i16, i32, ptr, i32, ptr, i32, i32, ptr, ptr, i64, i64, ptr, i16, i16, ptr, i32, i32, ptr, i32, ptr, i32, i16, i16, i16, ptr, i16, i16, ptr, ptr, i32, i16, i16, ptr, i32, i16, ptr, ptr, ptr, ptr, i16, ptr, ptr, ptr, ptr, i32, ptr, ptr, ptr, ptr, i16, i16, ptr, i32, i32, i32, i16, i16, ptr, ptr, i16, ptr, ptr, i32, i32, i32, i32, i32, i64, i32, i32, i16, ptr, ptr, i32, ptr, ptr, ptr, i16, i32, ptr, ptr, i16, ptr, ptr, i32, i16, ptr, ptr, ptr, ptr, i32, i32, i16, i16, i32, ptr, i16, ptr, i32, i32, i32, i32, i32, i32, ptr, i16, ptr, ptr, i32, i16, ptr, i32, i16, i16, ptr, ptr, ptr, i16, ptr, ptr, ptr, ptr, i16, i16, ptr, i16, ptr, i16, ptr, i16, ptr, i16, ptr, ptr, ptr, ptr, i16, ptr, ptr, ptr, i32, ptr, i32, ptr, ptr, i16, ptr, ptr, i32, i16, ptr, ptr, i16, i16, ptr, i16, ptr, ptr, ptr, i32, ptr, i16, i16, ptr, ptr, ptr, ptr, ptr, ptr, ptr, ptr, i16, i32, i16, ptr, ptr, ptr, ptr, i32, ptr, ptr, ptr, i16, ptr, ptr, ptr, i16, ptr, i16, ptr, i16, i16, ptr }
%struct.yaml_event_s = type { i32, %union.anon.20, %struct.yaml_mark_s, %struct.yaml_mark_s }
%union.anon.20 = type { %struct.anon.26 }
%struct.anon.26 = type { ptr, ptr, ptr, i64, i32, i32, i32 }
%struct.yaml_mark_s = type { i64, i64, i64 }
%struct.anon.30 = type { i32, ptr, ptr }

@plugin_type = dso_local constant [16 x i8] c"serializer/yaml\00", align 16
@slurm_conf = external global %struct.slurm_conf_t, align 8
@.str.40 = private unnamed_addr constant [29 x i8] c"%s: %s: DATA: PUSH %pD[]=%pD\00", align 1
@__func__._on_parse_event = private unnamed_addr constant [16 x i8] c"_on_parse_event\00", align 1
@.str.41 = private unnamed_addr constant [41 x i8] c"%s: YAML parser does not support aliases\00", align 1
@.str.42 = private unnamed_addr constant [21 x i8] c"should never execute\00", align 1
@.str.43 = private unnamed_addr constant [31 x i8] c"%s: %s: DATA: PUSH %pD[%s]=%pD\00", align 1
@__func__._on_parse_scalar = private unnamed_addr constant [17 x i8] c"_on_parse_scalar\00", align 1
@.str.44 = private unnamed_addr constant [21 x i8] c"DATA: %s: scalar tag\00", align 1

; Function Attrs: nounwind uwtable
define internal i32 @_yaml_tag_to_type(ptr noundef %0, ptr noundef %1) #0 {
  %3 = alloca i32, align 4
  %4 = alloca ptr, align 8
  %5 = alloca ptr, align 8
  %6 = alloca ptr, align 8
  %7 = alloca i32, align 4
  %8 = alloca i32, align 4
  store ptr %0, ptr %4, align 8
  store ptr %1, ptr %5, align 8
  call void @llvm.lifetime.start.p0(i64 8, ptr %6) #6
  %9 = load ptr, ptr %4, align 8
  %10 = getelementptr inbounds nuw %struct.yaml_event_s, ptr %9, i32 0, i32 1
  %11 = getelementptr inbounds nuw %struct.anon.26, ptr %10, i32 0, i32 1
  %12 = load ptr, ptr %11, align 8
  store ptr %12, ptr %6, align 8
  %13 = load ptr, ptr %6, align 8
  %14 = icmp ne ptr %13, null
  br i1 %14, label %15, label %20

15:                                               ; preds = %2
  %16 = load ptr, ptr %6, align 8
  %17 = getelementptr inbounds i8, ptr %16, i64 0
  %18 = load i8, ptr %17, align 1
  %19 = icmp ne i8 %18, 0
  br i1 %19, label %21, label %20

20:                                               ; preds = %15, %2
  store i32 0, ptr %3, align 4
  store i32 1, ptr %7, align 4
  br label %61

21:                                               ; preds = %15
  br label %22

22:                                               ; preds = %21
  %23 = load i64, ptr getelementptr inbounds nuw (%struct.slurm_conf_t, ptr @slurm_conf, i32 0, i32 42), align 8
  %24 = and i64 %23, 256
  %25 = icmp ne i64 %24, 0
  br i1 %25, label %26, label %31

26:                                               ; preds = %22
  %27 = load ptr, ptr %6, align 8
  %28 = load ptr, ptr %6, align 8
  %29 = call i64 @strlen(ptr noundef %28) #7
  %30 = load ptr, ptr %5, align 8
  call void (ptr, i64, i64, i64, ptr, ...) @_log_flag_hex(ptr noundef %27, i64 noundef %29, i64 noundef -1, i64 noundef -1, ptr noundef @.str.44, ptr noundef %30)
  br label %31

31:                                               ; preds = %26, %22
  br label %32

32:                                               ; preds = %31
  br label %33

33:                                               ; preds = %32
  call void @llvm.lifetime.start.p0(i64 4, ptr %8) #6
  store i32 0, ptr %8, align 4
  br label %34

34:                                               ; preds = %55, %33
  %35 = load i32, ptr %8, align 4
  %36 = sext i32 %35 to i64
  %37 = icmp ult i64 %36, 7
  br i1 %37, label %39, label %38

38:                                               ; preds = %34
  store i32 4, ptr %7, align 4
  br label %58

39:                                               ; preds = %34
  %40 = load i32, ptr %8, align 4
  %41 = sext i32 %40 to i64
  %42 = getelementptr inbounds [7 x %struct.anon.30], ptr @tags, i64 0, i64 %41
  %43 = getelementptr inbounds nuw %struct.anon.30, ptr %42, i32 0, i32 2
  %44 = load ptr, ptr %43, align 8
  %45 = load ptr, ptr %6, align 8
  %46 = call i32 @slurm_xstrcmp(ptr noundef %44, ptr noundef %45)
  %47 = icmp ne i32 %46, 0
  br i1 %47, label %54, label %48

48:                                               ; preds = %39
  %49 = load i32, ptr %8, align 4
  %50 = sext i32 %49 to i64
  %51 = getelementptr inbounds [7 x %struct.anon.30], ptr @tags, i64 0, i64 %50
  %52 = getelementptr inbounds nuw %struct.anon.30, ptr %51, i32 0, i32 0
  %53 = load i32, ptr %52, align 8
  store i32 %53, ptr %3, align 4
  store i32 1, ptr %7, align 4
  br label %58

54:                                               ; preds = %39
  br label %55

55:                                               ; preds = %54
  %56 = load i32, ptr %8, align 4
  %57 = add nsw i32 %56, 1
  store i32 %57, ptr %8, align 4
  br label %34, !llvm.loop !12

58:                                               ; preds = %48, %38
  call void @llvm.lifetime.end.p0(i64 4, ptr %8) #6
  %59 = load i32, ptr %7, align 4
  switch i32 %59, label %61 [
    i32 4, label %60
  ]

60:                                               ; preds = %58
  store i32 0, ptr %3, align 4
  store i32 1, ptr %7, align 4
  br label %61

61:                                               ; preds = %60, %58, %20
  call void @llvm.lifetime.end.p0(i64 8, ptr %6) #6
  %62 = load i32, ptr %3, align 4
  ret i32 %62
}

; Function Attrs: nounwind uwtable
define internal i32 @_on_parse_scalar(i32 noundef %0, ptr noundef %1, ptr noundef %2, ptr noundef %3, ptr noundef %4, i32 noundef %5) #0 {
  %7 = alloca i32, align 4
  %8 = alloca i32, align 4
  %9 = alloca ptr, align 8
  %10 = alloca ptr, align 8
  %11 = alloca ptr, align 8
  %12 = alloca ptr, align 8
  %13 = alloca i32, align 4
  %14 = alloca i32, align 4
  %15 = alloca ptr, align 8
  %16 = alloca ptr, align 8
  %17 = alloca i32, align 4
  store i32 %0, ptr %8, align 4
  store ptr %1, ptr %9, align 8
  store ptr %2, ptr %10, align 8
  store ptr %3, ptr %11, align 8
  store ptr %4, ptr %12, align 8
  store i32 %5, ptr %13, align 4
  call void @llvm.lifetime.start.p0(i64 4, ptr %14) #6
  call void @llvm.lifetime.start.p0(i64 8, ptr %15) #6
  %18 = load ptr, ptr %10, align 8
  %19 = getelementptr inbounds nuw %struct.yaml_event_s, ptr %18, i32 0, i32 1
  %20 = getelementptr inbounds nuw %struct.anon.26, ptr %19, i32 0, i32 2
  %21 = load ptr, ptr %20, align 8
  store ptr %21, ptr %15, align 8
  %22 = load ptr, ptr %11, align 8
  %23 = call i32 @data_get_type(ptr noundef %22)
  %24 = icmp eq i32 %23, 3
  br i1 %24, label %25, label %53

25:                                               ; preds = %6
  call void @llvm.lifetime.start.p0(i64 8, ptr %16) #6
  %26 = load ptr, ptr %11, align 8
  %27 = load ptr, ptr %15, align 8
  %28 = call ptr @data_key_set(ptr noundef %26, ptr noundef %27)
  store ptr %28, ptr %16, align 8
  br label %29

29:                                               ; preds = %25
  %30 = load i64, ptr getelementptr inbounds nuw (%struct.slurm_conf_t, ptr @slurm_conf, i32 0, i32 42), align 8
  %31 = and i64 %30, 256
  %32 = icmp ne i64 %31, 0
  br i1 %32, label %33, label %44

33:                                               ; preds = %29
  br label %34

34:                                               ; preds = %33
  %35 = call i32 @slurm_get_log_level()
  %36 = icmp sge i32 %35, 4
  br i1 %36, label %37, label %41

37:                                               ; preds = %34
  %38 = load ptr, ptr %11, align 8
  %39 = load ptr, ptr %15, align 8
  %40 = load ptr, ptr %16, align 8
  call void (i32, ptr, ...) @slurm_log_var(i32 noundef 4, ptr noundef @.str.43, ptr noundef @plugin_type, ptr noundef @__func__._on_parse_scalar, ptr noundef %38, ptr noundef %39, ptr noundef %40)
  br label %41

41:                                               ; preds = %37, %34
  br label %42

42:                                               ; preds = %41
  br label %43

43:                                               ; preds = %42
  br label %44

44:                                               ; preds = %43, %29
  br label %45

45:                                               ; preds = %44
  br label %46

46:                                               ; preds = %45
  %47 = load i32, ptr %8, align 4
  %48 = add nsw i32 %47, 1
  %49 = load ptr, ptr %9, align 8
  %50 = load ptr, ptr %16, align 8
  %51 = load ptr, ptr %12, align 8
  %52 = call i32 @_yaml_to_data(i32 noundef %48, ptr noundef %49, ptr noundef %50, ptr noundef %51)
  store i32 %52, ptr %7, align 4
  store i32 1, ptr %17, align 4
  call void @llvm.lifetime.end.p0(i64 8, ptr %16) #6
  br label %70

53:                                               ; preds = %6
  %54 = load ptr, ptr %10, align 8
  %55 = call i32 @_yaml_tag_to_type(ptr noundef %54, ptr noundef @__func__._on_parse_scalar)
  store i32 %55, ptr %14, align 4
  %56 = load ptr, ptr %11, align 8
  %57 = load ptr, ptr %15, align 8
  %58 = call ptr @data_set_string(ptr noundef %56, ptr noundef %57)
  %59 = load i32, ptr %14, align 4
  %60 = icmp ne i32 %59, 0
  br i1 %60, label %61, label %69

61:                                               ; preds = %53
  %62 = load ptr, ptr %11, align 8
  %63 = load i32, ptr %14, align 4
  %64 = call i32 @data_convert_type(ptr noundef %62, i32 noundef %63)
  %65 = load i32, ptr %14, align 4
  %66 = icmp ne i32 %64, %65
  br i1 %66, label %67, label %69

67:                                               ; preds = %61
  %68 = load ptr, ptr %12, align 8
  store i32 9202, ptr %68, align 4
  store i32 5, ptr %7, align 4
  store i32 1, ptr %17, align 4
  br label %70

69:                                               ; preds = %61, %53
  store i32 3, ptr %7, align 4
  store i32 1, ptr %17, align 4
  br label %70

70:                                               ; preds = %69, %67, %46
  call void @llvm.lifetime.end.p0(i64 8, ptr %15) #6
  call void @llvm.lifetime.end.p0(i64 4, ptr %14) #6
  %71 = load i32, ptr %7, align 4
  ret i32 %71
}

; Function Attrs: nounwind uwtable
define internal i32 @_on_parse_event(i32 noundef %0, ptr noundef %1, ptr noundef %2, ptr noundef %3, ptr noundef %4, i32 noundef %5) #0 {
  %7 = alloca i32, align 4
  %8 = alloca i32, align 4
  %9 = alloca ptr, align 8
  %10 = alloca ptr, align 8
  %11 = alloca ptr, align 8
  %12 = alloca ptr, align 8
  %13 = alloca i32, align 4
  %14 = alloca ptr, align 8
  store i32 %0, ptr %8, align 4
  store ptr %1, ptr %9, align 8
  store ptr %2, ptr %10, align 8
  store ptr %3, ptr %11, align 8
  store ptr %4, ptr %12, align 8
  store i32 %5, ptr %13, align 4
  %15 = load ptr, ptr %11, align 8
  %16 = call i32 @data_get_type(ptr noundef %15)
  %17 = icmp eq i32 %16, 2
  br i1 %17, label %18, label %68

18:                                               ; preds = %6
  %19 = load ptr, ptr %10, align 8
  %20 = getelementptr inbounds nuw %struct.yaml_event_s, ptr %19, i32 0, i32 0
  %21 = load i32, ptr %20, align 8
  %22 = icmp eq i32 %21, 6
  br i1 %22, label %33, label %23

23:                                               ; preds = %18
  %24 = load ptr, ptr %10, align 8
  %25 = getelementptr inbounds nuw %struct.yaml_event_s, ptr %24, i32 0, i32 0
  %26 = load i32, ptr %25, align 8
  %27 = icmp eq i32 %26, 7
  br i1 %27, label %33, label %28

28:                                               ; preds = %23
  %29 = load ptr, ptr %10, align 8
  %30 = getelementptr inbounds nuw %struct.yaml_event_s, ptr %29, i32 0, i32 0
  %31 = load i32, ptr %30, align 8
  %32 = icmp eq i32 %31, 9
  br i1 %32, label %33, label %68

33:                                               ; preds = %28, %23, %18
  call void @llvm.lifetime.start.p0(i64 8, ptr %14) #6
  %34 = load ptr, ptr %11, align 8
  %35 = call ptr @data_list_append(ptr noundef %34)
  store ptr %35, ptr %14, align 8
  br label %36

36:                                               ; preds = %33
  %37 = load i64, ptr getelementptr inbounds nuw (%struct.slurm_conf_t, ptr @slurm_conf, i32 0, i32 42), align 8
  %38 = and i64 %37, 256
  %39 = icmp ne i64 %38, 0
  br i1 %39, label %40, label %50

40:                                               ; preds = %36
  br label %41

41:                                               ; preds = %40
  %42 = call i32 @slurm_get_log_level()
  %43 = icmp sge i32 %42, 4
  br i1 %43, label %44, label %47

44:                                               ; preds = %41
  %45 = load ptr, ptr %11, align 8
  %46 = load ptr, ptr %14, align 8
  call void (i32, ptr, ...) @slurm_log_var(i32 noundef 4, ptr noundef @.str.40, ptr noundef @plugin_type, ptr noundef @__func__._on_parse_event, ptr noundef %45, ptr noundef %46)
  br label %47

47:                                               ; preds = %44, %41
  br label %48

48:                                               ; preds = %47
  br label %49

49:                                               ; preds = %48
  br label %50

50:                                               ; preds = %49, %36
  br label %51

51:                                               ; preds = %50
  br label %52

52:                                               ; preds = %51
  %53 = load i32, ptr %8, align 4
  %54 = add nsw i32 %53, 1
  %55 = load ptr, ptr %9, align 8
  %56 = load ptr, ptr %10, align 8
  %57 = load ptr, ptr %14, align 8
  %58 = load ptr, ptr %12, align 8
  %59 = load i32, ptr %13, align 4
  %60 = call i32 @_on_parse_event(i32 noundef %54, ptr noundef %55, ptr noundef %56, ptr noundef %57, ptr noundef %58, i32 noundef %59)
  store i32 %60, ptr %13, align 4
  %61 = load i32, ptr %13, align 4
  %62 = icmp eq i32 %61, 3
  br i1 %62, label %63, label %64

63:                                               ; preds = %52
  br label %66

64:                                               ; preds = %52
  %65 = load i32, ptr %13, align 4
  br label %66

66:                                               ; preds = %64, %63
  %67 = phi i32 [ 2, %63 ], [ %65, %64 ]
  store i32 %67, ptr %7, align 4
  call void @llvm.lifetime.end.p0(i64 8, ptr %14) #6
  br label %123

68:                                               ; preds = %28, %6
  %69 = load ptr, ptr %10, align 8
  %70 = getelementptr inbounds nuw %struct.yaml_event_s, ptr %69, i32 0, i32 0
  %71 = load i32, ptr %70, align 8
  switch i32 %71, label %122 [
    i32 0, label %72
    i32 3, label %73
    i32 1, label %74
    i32 4, label %75
    i32 2, label %76
    i32 5, label %77
    i32 6, label %80
    i32 7, label %88
    i32 8, label %104
    i32 9, label %105
    i32 10, label %121
  ]

72:                                               ; preds = %68
  store i32 4, ptr %7, align 4
  br label %123

73:                                               ; preds = %68
  store i32 2, ptr %7, align 4
  br label %123

74:                                               ; preds = %68
  store i32 2, ptr %7, align 4
  br label %123

75:                                               ; preds = %68
  store i32 2, ptr %7, align 4
  br label %123

76:                                               ; preds = %68
  store i32 4, ptr %7, align 4
  br label %123

77:                                               ; preds = %68
  %78 = call i32 (ptr, ...) @slurm_error(ptr noundef @.str.41, ptr noundef @__func__._on_parse_event)
  %79 = load ptr, ptr %12, align 8
  store i32 2036, ptr %79, align 4
  store i32 5, ptr %7, align 4
  br label %123

80:                                               ; preds = %68
  %81 = load i32, ptr %8, align 4
  %82 = load ptr, ptr %9, align 8
  %83 = load ptr, ptr %10, align 8
  %84 = load ptr, ptr %11, align 8
  %85 = load ptr, ptr %12, align 8
  %86 = load i32, ptr %13, align 4
  %87 = call i32 @_on_parse_scalar(i32 noundef %81, ptr noundef %82, ptr noundef %83, ptr noundef %84, ptr noundef %85, i32 noundef %86)
  store i32 %87, ptr %7, align 4
  br label %123

88:                                               ; preds = %68
  %89 = load ptr, ptr %11, align 8
  %90 = call ptr @data_set_list(ptr noundef %89)
  %91 = load i32, ptr %8, align 4
  %92 = add nsw i32 %91, 1
  %93 = load ptr, ptr %9, align 8
  %94 = load ptr, ptr %11, align 8
  %95 = load ptr, ptr %12, align 8
  %96 = call i32 @_yaml_to_data(i32 noundef %92, ptr noundef %93, ptr noundef %94, ptr noundef %95)
  store i32 %96, ptr %13, align 4
  %97 = load i32, ptr %13, align 4
  %98 = icmp eq i32 %97, 2
  br i1 %98, label %99, label %100

99:                                               ; preds = %88
  br label %102

100:                                              ; preds = %88
  %101 = load i32, ptr %13, align 4
  br label %102

102:                                              ; preds = %100, %99
  %103 = phi i32 [ 3, %99 ], [ %101, %100 ]
  store i32 %103, ptr %7, align 4
  br label %123

104:                                              ; preds = %68
  store i32 3, ptr %7, align 4
  br label %123

105:                                              ; preds = %68
  %106 = load ptr, ptr %11, align 8
  %107 = call ptr @data_set_dict(ptr noundef %106)
  %108 = load i32, ptr %8, align 4
  %109 = add nsw i32 %108, 1
  %110 = load ptr, ptr %9, align 8
  %111 = load ptr, ptr %11, align 8
  %112 = load ptr, ptr %12, align 8
  %113 = call i32 @_yaml_to_data(i32 noundef %109, ptr noundef %110, ptr noundef %111, ptr noundef %112)
  store i32 %113, ptr %13, align 4
  %114 = load i32, ptr %13, align 4
  %115 = icmp eq i32 %114, 2
  br i1 %115, label %116, label %117

116:                                              ; preds = %105
  br label %119

117:                                              ; preds = %105
  %118 = load i32, ptr %13, align 4
  br label %119

119:                                              ; preds = %117, %116
  %120 = phi i32 [ 3, %116 ], [ %118, %117 ]
  store i32 %120, ptr %7, align 4
  br label %123

121:                                              ; preds = %68
  store i32 3, ptr %7, align 4
  br label %123

122:                                              ; preds = %68
  call void (ptr, ...) @slurm_fatal_abort(ptr noundef @.str.42) #8
  unreachable

123:                                              ; preds = %121, %119, %104, %102, %80, %77, %76, %75, %74, %73, %72, %66
  %124 = load i32, ptr %7, align 4
  ret i32 %124
}